target datalayout = "e-m:e-p270:32:32-p271:32:32-p272:64:64-i64:64-i128:128-f80:128-n8:16:32:64-S128"
target triple = "x86_64-pc-linux-gnu"

%struct.UConverterAlias = type { ptr, ptr, ptr, ptr, ptr, ptr, ptr, ptr, ptr, i32, i32, i32, i32, i32, i32, i32, i32, i32 }

@_ZL10gMainTable = internal global %struct.UConverterAlias zeroinitializer, align 8

; Function Attrs: inlinehint mustprogress nounwind uwtable
define internal noundef signext i8 @_ZL7isAliasPKcP10UErrorCode(ptr noundef %0, ptr noundef %1) #3 {
  %3 = alloca i8, align 1
  %4 = alloca ptr, align 8
  %5 = alloca ptr, align 8
  store ptr %0, ptr %4, align 8, !tbaa !3
  store ptr %1, ptr %5, align 8, !tbaa !17
  %6 = load ptr, ptr %4, align 8, !tbaa !3
  %7 = icmp eq ptr %6, null
  br i1 %7, label %8, label %10

8:                                                ; preds = %2
  %9 = load ptr, ptr %5, align 8, !tbaa !17
  store i32 1, ptr %9, align 4, !tbaa !26
  store i8 0, ptr %3, align 1
  br label %16

10:                                               ; preds = %2
  %11 = load ptr, ptr %4, align 8, !tbaa !3
  %12 = load i8, ptr %11, align 1, !tbaa !8
  %13 = sext i8 %12 to i32
  %14 = icmp ne i32 %13, 0
  %15 = zext i1 %14 to i8
  store i8 %15, ptr %3, align 1
  br label %16

16:                                               ; preds = %10, %8
  %17 = load i8, ptr %3, align 1
  ret i8 %17
}

; Function Attrs: mustprogress uwtable
define internal noundef ptr @_ZL16ucnv_io_getAliasPKctP10UErrorCode(ptr noundef %0, i16 noundef zeroext %1, ptr noundef %2) #2 {
  %4 = alloca ptr, align 8
  %5 = alloca ptr, align 8
  %6 = alloca i16, align 2
  %7 = alloca ptr, align 8
  %8 = alloca i32, align 4
  %9 = alloca i32, align 4
  %10 = alloca i32, align 4
  %11 = alloca ptr, align 8
  %12 = alloca i32, align 4
  store ptr %0, ptr %5, align 8, !tbaa !3
  store i16 %1, ptr %6, align 2, !tbaa !23
  store ptr %2, ptr %7, align 8, !tbaa !17
  %13 = load ptr, ptr %7, align 8, !tbaa !17
  %14 = call noundef signext i8 @_ZL13haveAliasDataP10UErrorCode(ptr noundef %13)
  %15 = icmp ne i8 %14, 0
  br i1 %15, label %16, label %81

16:                                               ; preds = %3
  %17 = load ptr, ptr %5, align 8, !tbaa !3
  %18 = load ptr, ptr %7, align 8, !tbaa !17
  %19 = call noundef signext i8 @_ZL7isAliasPKcP10UErrorCode(ptr noundef %17, ptr noundef %18)
  %20 = icmp ne i8 %19, 0
  br i1 %20, label %21, label %81

21:                                               ; preds = %16
  call void @llvm.lifetime.start.p0(i64 4, ptr %8) #12
  %22 = load ptr, ptr %5, align 8, !tbaa !3
  %23 = load ptr, ptr %7, align 8, !tbaa !17
  %24 = call noundef i32 @_ZL13findConverterPKcPaP10UErrorCode(ptr noundef %22, ptr noundef null, ptr noundef %23)
  store i32 %24, ptr %8, align 4, !tbaa !14
  %25 = load i32, ptr %8, align 4, !tbaa !14
  %26 = load i32, ptr getelementptr inbounds nuw (%struct.UConverterAlias, ptr @_ZL10gMainTable, i32 0, i32 9), align 8, !tbaa !18
  %27 = icmp ult i32 %25, %26
  br i1 %27, label %28, label %77

28:                                               ; preds = %21
  call void @llvm.lifetime.start.p0(i64 4, ptr %9) #12
  %29 = load ptr, ptr getelementptr inbounds nuw (%struct.UConverterAlias, ptr @_ZL10gMainTable, i32 0, i32 4), align 8, !tbaa !48
  %30 = load i32, ptr getelementptr inbounds nuw (%struct.UConverterAlias, ptr @_ZL10gMainTable, i32 0, i32 10), align 4, !tbaa !47
  %31 = sub i32 %30, 1
  %32 = load i32, ptr getelementptr inbounds nuw (%struct.UConverterAlias, ptr @_ZL10gMainTable, i32 0, i32 9), align 8, !tbaa !18
  %33 = mul i32 %31, %32
  %34 = load i32, ptr %8, align 4, !tbaa !14
  %35 = add i32 %33, %34
  %36 = zext i32 %35 to i64
  %37 = getelementptr inbounds nuw i16, ptr %29, i64 %36
  %38 = load i16, ptr %37, align 2, !tbaa !23
  %39 = zext i16 %38 to i32
  store i32 %39, ptr %9, align 4, !tbaa !14
  %40 = load i32, ptr %9, align 4, !tbaa !14
  %41 = icmp ne i32 %40, 0
  br i1 %41, label %42, label %73

42:                                               ; preds = %28
  call void @llvm.lifetime.start.p0(i64 4, ptr %10) #12
  %43 = load ptr, ptr getelementptr inbounds nuw (%struct.UConverterAlias, ptr @_ZL10gMainTable, i32 0, i32 5), align 8, !tbaa !49
  %44 = load i32, ptr %9, align 4, !tbaa !14
  %45 = sext i32 %44 to i64
  %46 = getelementptr inbounds i16, ptr %43, i64 %45
  %47 = load i16, ptr %46, align 2, !tbaa !23
  %48 = zext i16 %47 to i32
  store i32 %48, ptr %10, align 4, !tbaa !14
  call void @llvm.lifetime.start.p0(i64 8, ptr %11) #12
  %49 = load ptr, ptr getelementptr inbounds nuw (%struct.UConverterAlias, ptr @_ZL10gMainTable, i32 0, i32 5), align 8, !tbaa !49
  %50 = load i32, ptr %9, align 4, !tbaa !14
  %51 = sext i32 %50 to i64
  %52 = getelementptr inbounds i16, ptr %49, i64 %51
  %53 = getelementptr inbounds i16, ptr %52, i64 1
  store ptr %53, ptr %11, align 8, !tbaa !53
  %54 = load i16, ptr %6, align 2, !tbaa !23
  %55 = zext i16 %54 to i32
  %56 = load i32, ptr %10, align 4, !tbaa !14
  %57 = icmp ult i32 %55, %56
  br i1 %57, label %58, label %68

58:                                               ; preds = %42
  %59 = load ptr, ptr getelementptr inbounds nuw (%struct.UConverterAlias, ptr @_ZL10gMainTable, i32 0, i32 7), align 8, !tbaa !21
  %60 = load ptr, ptr %11, align 8, !tbaa !53
  %61 = load i16, ptr %6, align 2, !tbaa !23
  %62 = zext i16 %61 to i64
  %63 = getelementptr inbounds nuw i16, ptr %60, i64 %62
  %64 = load i16, ptr %63, align 2, !tbaa !23
  %65 = zext i16 %64 to i32
  %66 = sext i32 %65 to i64
  %67 = getelementptr inbounds i16, ptr %59, i64 %66
  store ptr %67, ptr %4, align 8
  store i32 1, ptr %12, align 4
  br label %70

68:                                               ; preds = %42
  %69 = load ptr, ptr %7, align 8, !tbaa !17
  store i32 8, ptr %69, align 4, !tbaa !26
  store i32 0, ptr %12, align 4
  br label %70

70:                                               ; preds = %68, %58
  call void @llvm.lifetime.end.p0(i64 8, ptr %11) #12
  call void @llvm.lifetime.end.p0(i64 4, ptr %10) #12
  %71 = load i32, ptr %12, align 4
  switch i32 %71, label %74 [
    i32 0, label %72
  ]

72:                                               ; preds = %70
  br label %73

73:                                               ; preds = %72, %28
  store i32 0, ptr %12, align 4
  br label %74

74:                                               ; preds = %73, %70
  call void @llvm.lifetime.end.p0(i64 4, ptr %9) #12
  %75 = load i32, ptr %12, align 4
  switch i32 %75, label %78 [
    i32 0, label %76
  ]

76:                                               ; preds = %74
  br label %77

77:                                               ; preds = %76, %21
  store i32 0, ptr %12, align 4
  br label %78

78:                                               ; preds = %77, %74
  call void @llvm.lifetime.end.p0(i64 4, ptr %8) #12
  %79 = load i32, ptr %12, align 4
  switch i32 %79, label %84 [
    i32 0, label %80
    i32 1, label %82
  ]

80:                                               ; preds = %78
  br label %81

81:                                               ; preds = %80, %16, %3
  store ptr null, ptr %4, align 8
  br label %82

82:                                               ; preds = %81, %78
  %83 = load ptr, ptr %4, align 8
  ret ptr %83

84:                                               ; preds = %78
  unreachable
}

; Function Attrs: mustprogress uwtable
define ptr @ucnv_getAlias_77(ptr noundef %0, i16 noundef zeroext %1, ptr noundef %2) #2 {
  %4 = alloca ptr, align 8
  %5 = alloca i16, align 2
  %6 = alloca ptr, align 8
  store ptr %0, ptr %4, align 8, !tbaa !3
  store i16 %1, ptr %5, align 2, !tbaa !23
  store ptr %2, ptr %6, align 8, !tbaa !17
  %7 = load ptr, ptr %4, align 8, !tbaa !3
  %8 = load i16, ptr %5, align 2, !tbaa !23
  %9 = load ptr, ptr %6, align 8, !tbaa !17
  %10 = call noundef ptr @_ZL16ucnv_io_getAliasPKctP10UErrorCode(ptr noundef %7, i16 noundef zeroext %8, ptr noundef %9)
  ret ptr %10
}