; Function Attrs: mustprogress uwtable
define ptr @ucnv_getAlias_77(ptr noundef readonly %0, i16 noundef zeroext %1, ptr noundef %2) local_unnamed_addr #3 {
  %4 = tail call fastcc noundef signext i8 @_ZL13haveAliasDataP10UErrorCode(ptr noundef %2)
  %.not.i = icmp eq i8 %4, 0
  br i1 %.not.i, label %_ZL16ucnv_io_getAliasPKctP10UErrorCode.exit, label %5

5:                                                ; preds = %3
  %6 = icmp eq ptr %0, null
  br i1 %6, label %_ZL7isAliasPKcP10UErrorCode.exit.thread.i, label %_ZL7isAliasPKcP10UErrorCode.exit.i

_ZL7isAliasPKcP10UErrorCode.exit.thread.i:        ; preds = %5
  store i32 1, ptr %2, align 4, !tbaa !13
  br label %_ZL16ucnv_io_getAliasPKctP10UErrorCode.exit

_ZL7isAliasPKcP10UErrorCode.exit.i:               ; preds = %5
  %7 = load i8, ptr %0, align 1, !tbaa !3
  %.not42.i = icmp eq i8 %7, 0
  br i1 %.not42.i, label %_ZL16ucnv_io_getAliasPKctP10UErrorCode.exit, label %8

8:                                                ; preds = %_ZL7isAliasPKcP10UErrorCode.exit.i
  %9 = tail call fastcc noundef i32 @_ZL13findConverterPKcPaP10UErrorCode(ptr noundef nonnull readonly %0, ptr noundef null, ptr noundef %2)
  %10 = load i32, ptr getelementptr inbounds nuw (i8, ptr @_ZL10gMainTable, i64 72), align 8, !tbaa !15
  %11 = icmp ult i32 %9, %10
  br i1 %11, label %12, label %_ZL16ucnv_io_getAliasPKctP10UErrorCode.exit

12:                                               ; preds = %8
  %13 = load ptr, ptr getelementptr inbounds nuw (i8, ptr @_ZL10gMainTable, i64 32), align 8, !tbaa !38
  %14 = load i32, ptr getelementptr inbounds nuw (i8, ptr @_ZL10gMainTable, i64 76), align 4, !tbaa !27
  %15 = add i32 %14, -1
  %16 = mul i32 %15, %10
  %17 = add i32 %16, %9
  %18 = zext i32 %17 to i64
  %19 = getelementptr inbounds nuw i16, ptr %13, i64 %18
  %20 = load i16, ptr %19, align 2, !tbaa !22
  %.not26.i = icmp eq i16 %20, 0
  br i1 %.not26.i, label %_ZL16ucnv_io_getAliasPKctP10UErrorCode.exit, label %21

21:                                               ; preds = %12
  %22 = load ptr, ptr getelementptr inbounds nuw (i8, ptr @_ZL10gMainTable, i64 40), align 8, !tbaa !39
  %23 = zext i16 %20 to i64
  %24 = getelementptr inbounds nuw i16, ptr %22, i64 %23
  %25 = load i16, ptr %24, align 2, !tbaa !22
  %.not27.i = icmp ult i16 %1, %25
  br i1 %.not27.i, label %26, label %.thread35.i

.thread35.i:                                      ; preds = %21
  store i32 8, ptr %2, align 4, !tbaa !13
  br label %_ZL16ucnv_io_getAliasPKctP10UErrorCode.exit

26:                                               ; preds = %21
  %27 = getelementptr inbounds nuw i8, ptr %24, i64 2
  %28 = load ptr, ptr getelementptr inbounds nuw (i8, ptr @_ZL10gMainTable, i64 56), align 8, !tbaa !20
  %29 = zext i16 %1 to i64
  %30 = getelementptr inbounds nuw i16, ptr %27, i64 %29
  %31 = load i16, ptr %30, align 2, !tbaa !22
  %32 = zext i16 %31 to i64
  %33 = getelementptr inbounds nuw i16, ptr %28, i64 %32
  br label %_ZL16ucnv_io_getAliasPKctP10UErrorCode.exit

_ZL16ucnv_io_getAliasPKctP10UErrorCode.exit:      ; preds = %3, %_ZL7isAliasPKcP10UErrorCode.exit.thread.i, %_ZL7isAliasPKcP10UErrorCode.exit.i, %8, %12, %.thread35.i, %26
  %.5.i = phi ptr [ %33, %26 ], [ null, %_ZL7isAliasPKcP10UErrorCode.exit.thread.i ], [ null, %_ZL7isAliasPKcP10UErrorCode.exit.i ], [ null, %3 ], [ null, %8 ], [ null, %.thread35.i ], [ null, %12 ]
  ret ptr %.5.i
}